; ModuleID = 'source-C-CXX/42/461.cpp'
source_filename = "source-C-CXX/42/461.cpp"
target datalayout = "e-m:e-p270:32:32-p271:32:32-p272:64:64-i64:64-f80:128-n8:16:32:64-S128"
target triple = "x86_64-pc-linux-gnu"

%"class.std::ios_base::Init" = type { i8 }
%"class.std::basic_istream" = type { i32 (...)**, i64, %"class.std::basic_ios" }
%"class.std::basic_ios" = type { %"class.std::ios_base", %"class.std::basic_ostream"*, i8, i8, %"class.std::basic_streambuf"*, %"class.std::ctype"*, %"class.std::num_put"*, %"class.std::num_get"* }
%"class.std::ios_base" = type { i32 (...)**, i64, i64, i32, i32, i32, %"struct.std::ios_base::_Callback_list"*, %"struct.std::ios_base::_Words", [8 x %"struct.std::ios_base::_Words"], i32, %"struct.std::ios_base::_Words"*, %"class.std::locale" }
%"struct.std::ios_base::_Callback_list" = type { %"struct.std::ios_base::_Callback_list"*, void (i32, %"class.std::ios_base"*, i32)*, i32, i32 }
%"struct.std::ios_base::_Words" = type { i8*, i64 }
%"class.std::locale" = type { %"class.std::locale::_Impl"* }
%"class.std::locale::_Impl" = type { i32, %"class.std::locale::facet"**, i64, %"class.std::locale::facet"**, i8** }
%"class.std::locale::facet" = type <{ i32 (...)**, i32, [4 x i8] }>
%"class.std::basic_ostream" = type { i32 (...)**, %"class.std::basic_ios" }
%"class.std::basic_streambuf" = type { i32 (...)**, i8*, i8*, i8*, i8*, i8*, i8*, %"class.std::locale" }
%"class.std::ctype" = type <{ %"class.std::locale::facet.base", [4 x i8], %struct.__locale_struct*, i8, [7 x i8], i32*, i32*, i16*, i8, [256 x i8], [256 x i8], i8, [6 x i8] }>
%"class.std::locale::facet.base" = type <{ i32 (...)**, i32 }>
%struct.__locale_struct = type { [13 x %struct.__locale_data*], i16*, i32*, i32*, [13 x i8*] }
%struct.__locale_data = type opaque
%"class.std::num_put" = type { %"class.std::locale::facet.base", [4 x i8] }
%"class.std::num_get" = type { %"class.std::locale::facet.base", [4 x i8] }

@_ZStL8__ioinit = internal global %"class.std::ios_base::Init" zeroinitializer, align 1
@__dso_handle = external hidden global i8
@_ZSt3cin = external global %"class.std::basic_istream", align 8
@_ZSt4cout = external global %"class.std::basic_ostream", align 8
@.str = private unnamed_addr constant [2 x i8] c" \00", align 1
@llvm.global_ctors = appending global [1 x { i32, void ()*, i8* }] [{ i32, void ()*, i8* } { i32 65535, void ()* @_GLOBAL__sub_I_461.cpp, i8* null }]

declare void @_ZNSt8ios_base4InitC1Ev(%"class.std::ios_base::Init"* nonnull align 1 dereferenceable(1)) unnamed_addr #0

; Function Attrs: nounwind
declare void @_ZNSt8ios_base4InitD1Ev(%"class.std::ios_base::Init"* nonnull align 1 dereferenceable(1)) unnamed_addr #1

; Function Attrs: nofree nounwind
declare i32 @__cxa_atexit(void (i8*)*, i8*, i8*) local_unnamed_addr #2

; Function Attrs: mustprogress norecurse sspstrong uwtable
define dso_local i32 @main() local_unnamed_addr #3 {
  %1 = alloca i32, align 4
  %2 = bitcast i32* %1 to i8*
  call void @llvm.lifetime.start.p0i8(i64 4, i8* nonnull %2) #7
  %3 = call nonnull align 8 dereferenceable(16) %"class.std::basic_istream"* @_ZNSirsERi(%"class.std::basic_istream"* nonnull align 8 dereferenceable(16) @_ZSt3cin, i32* nonnull align 4 dereferenceable(4) %1)
  %4 = load i32, i32* %1, align 4, !tbaa !5
  %5 = icmp slt i32 %4, 4
  br i1 %5, label %78, label %6

6:                                                ; preds = %0, %72
  %7 = phi i32 [ %73, %72 ], [ %4, %0 ]
  %8 = phi i32 [ %77, %72 ], [ -2, %0 ]
  %9 = phi i32 [ %74, %72 ], [ 2, %0 ]
  %10 = sub nsw i32 %7, %9
  %11 = and i32 %9, 1
  %12 = icmp eq i32 %11, 0
  %13 = and i32 %10, 1
  %14 = icmp eq i32 %13, 0
  %15 = select i1 %12, i1 true, i1 %14
  br i1 %15, label %72, label %16

16:                                               ; preds = %6
  %17 = icmp sgt i32 %10, 2
  br i1 %17, label %18, label %38

18:                                               ; preds = %16
  %19 = add i32 %7, %8
  br label %20

20:                                               ; preds = %18, %32
  %21 = phi i32 [ %33, %32 ], [ 0, %18 ]
  %22 = phi i32 [ %34, %32 ], [ 2, %18 ]
  %23 = icmp eq i32 %22, %9
  br i1 %23, label %32, label %24

24:                                               ; preds = %20
  %25 = urem i32 %9, %22
  %26 = icmp eq i32 %25, 0
  br i1 %26, label %30, label %27

27:                                               ; preds = %24
  %28 = srem i32 %10, %22
  %29 = icmp eq i32 %28, 0
  br i1 %29, label %30, label %32

30:                                               ; preds = %27, %24
  %31 = add nsw i32 %21, 1
  br label %32

32:                                               ; preds = %20, %30, %27
  %33 = phi i32 [ %31, %30 ], [ %21, %27 ], [ %21, %20 ]
  %34 = add nuw nsw i32 %22, 1
  %35 = icmp eq i32 %34, %19
  br i1 %35, label %36, label %20, !llvm.loop !9

36:                                               ; preds = %32
  %37 = icmp eq i32 %33, 0
  br i1 %37, label %38, label %72

38:                                               ; preds = %16, %36
  %39 = call nonnull align 8 dereferenceable(8) %"class.std::basic_ostream"* @_ZNSolsEi(%"class.std::basic_ostream"* nonnull align 8 dereferenceable(8) @_ZSt4cout, i32 %9)
  %40 = call nonnull align 8 dereferenceable(8) %"class.std::basic_ostream"* @_ZSt16__ostream_insertIcSt11char_traitsIcEERSt13basic_ostreamIT_T0_ES6_PKS3_l(%"class.std::basic_ostream"* nonnull align 8 dereferenceable(8) %39, i8* nonnull getelementptr inbounds ([2 x i8], [2 x i8]* @.str, i64 0, i64 0), i64 1)
  %41 = call nonnull align 8 dereferenceable(8) %"class.std::basic_ostream"* @_ZNSolsEi(%"class.std::basic_ostream"* nonnull align 8 dereferenceable(8) %39, i32 %10)
  %42 = bitcast %"class.std::basic_ostream"* %41 to i8**
  %43 = load i8*, i8** %42, align 8, !tbaa !11
  %44 = getelementptr i8, i8* %43, i64 -24
  %45 = bitcast i8* %44 to i64*
  %46 = load i64, i64* %45, align 8
  %47 = bitcast %"class.std::basic_ostream"* %41 to i8*
  %48 = add nsw i64 %46, 240
  %49 = getelementptr inbounds i8, i8* %47, i64 %48
  %50 = bitcast i8* %49 to %"class.std::ctype"**
  %51 = load %"class.std::ctype"*, %"class.std::ctype"** %50, align 8, !tbaa !13
  %52 = icmp eq %"class.std::ctype"* %51, null
  br i1 %52, label %53, label %54

53:                                               ; preds = %38
  call void @_ZSt16__throw_bad_castv() #8
  unreachable

54:                                               ; preds = %38
  %55 = getelementptr inbounds %"class.std::ctype", %"class.std::ctype"* %51, i64 0, i32 8
  %56 = load i8, i8* %55, align 8, !tbaa !17
  %57 = icmp eq i8 %56, 0
  br i1 %57, label %61, label %58

58:                                               ; preds = %54
  %59 = getelementptr inbounds %"class.std::ctype", %"class.std::ctype"* %51, i64 0, i32 9, i64 10
  %60 = load i8, i8* %59, align 1, !tbaa !19
  br label %67

61:                                               ; preds = %54
  call void @_ZNKSt5ctypeIcE13_M_widen_initEv(%"class.std::ctype"* nonnull align 8 dereferenceable(570) %51)
  %62 = bitcast %"class.std::ctype"* %51 to i8 (%"class.std::ctype"*, i8)***
  %63 = load i8 (%"class.std::ctype"*, i8)**, i8 (%"class.std::ctype"*, i8)*** %62, align 8, !tbaa !11
  %64 = getelementptr inbounds i8 (%"class.std::ctype"*, i8)*, i8 (%"class.std::ctype"*, i8)** %63, i64 6
  %65 = load i8 (%"class.std::ctype"*, i8)*, i8 (%"class.std::ctype"*, i8)** %64, align 8
  %66 = call signext i8 %65(%"class.std::ctype"* nonnull align 8 dereferenceable(570) %51, i8 signext 10)
  br label %67

67:                                               ; preds = %58, %61
  %68 = phi i8 [ %60, %58 ], [ %66, %61 ]
  %69 = call nonnull align 8 dereferenceable(8) %"class.std::basic_ostream"* @_ZNSo3putEc(%"class.std::basic_ostream"* nonnull align 8 dereferenceable(8) %41, i8 signext %68)
  %70 = call nonnull align 8 dereferenceable(8) %"class.std::basic_ostream"* @_ZNSo5flushEv(%"class.std::basic_ostream"* nonnull align 8 dereferenceable(8) %69)
  %71 = load i32, i32* %1, align 4, !tbaa !5
  br label %72

72:                                               ; preds = %6, %67, %36
  %73 = phi i32 [ %7, %6 ], [ %71, %67 ], [ %7, %36 ]
  %74 = add nuw nsw i32 %9, 1
  %75 = sdiv i32 %73, 2
  %76 = icmp slt i32 %9, %75
  %77 = add nsw i32 %8, -1
  br i1 %76, label %6, label %78, !llvm.loop !20

78:                                               ; preds = %72, %0
  call void @llvm.lifetime.end.p0i8(i64 4, i8* nonnull %2) #7
  ret i32 0
}

; Function Attrs: argmemonly mustprogress nofree nosync nounwind willreturn
declare void @llvm.lifetime.start.p0i8(i64 immarg, i8* nocapture) #4

declare nonnull align 8 dereferenceable(16) %"class.std::basic_istream"* @_ZNSirsERi(%"class.std::basic_istream"* nonnull align 8 dereferenceable(16), i32* nonnull align 4 dereferenceable(4)) local_unnamed_addr #0

declare nonnull align 8 dereferenceable(8) %"class.std::basic_ostream"* @_ZNSolsEi(%"class.std::basic_ostream"* nonnull align 8 dereferenceable(8), i32) local_unnamed_addr #0

; Function Attrs: argmemonly mustprogress nofree nosync nounwind willreturn
declare void @llvm.lifetime.end.p0i8(i64 immarg, i8* nocapture) #4

declare nonnull align 8 dereferenceable(8) %"class.std::basic_ostream"* @_ZSt16__ostream_insertIcSt11char_traitsIcEERSt13basic_ostreamIT_T0_ES6_PKS3_l(%"class.std::basic_ostream"* nonnull align 8 dereferenceable(8), i8*, i64) local_unnamed_addr #0

declare nonnull align 8 dereferenceable(8) %"class.std::basic_ostream"* @_ZNSo3putEc(%"class.std::basic_ostream"* nonnull align 8 dereferenceable(8), i8 signext) local_unnamed_addr #0

declare nonnull align 8 dereferenceable(8) %"class.std::basic_ostream"* @_ZNSo5flushEv(%"class.std::basic_ostream"* nonnull align 8 dereferenceable(8)) local_unnamed_addr #0

; Function Attrs: noreturn
declare void @_ZSt16__throw_bad_castv() local_unnamed_addr #5

declare void @_ZNKSt5ctypeIcE13_M_widen_initEv(%"class.std::ctype"* nonnull align 8 dereferenceable(570)) local_unnamed_addr #0

; Function Attrs: sspstrong uwtable
define internal void @_GLOBAL__sub_I_461.cpp() #6 section ".text.startup" {
  tail call void @_ZNSt8ios_base4InitC1Ev(%"class.std::ios_base::Init"* nonnull align 1 dereferenceable(1) @_ZStL8__ioinit)
  %1 = tail call i32 @__cxa_atexit(void (i8*)* bitcast (void (%"class.std::ios_base::Init"*)* @_ZNSt8ios_base4InitD1Ev to void (i8*)*), i8* getelementptr inbounds (%"class.std::ios_base::Init", %"class.std::ios_base::Init"* @_ZStL8__ioinit, i64 0, i32 0), i8* nonnull @__dso_handle) #7
  ret void
}


!llvm.module.flags = !{!0, !1, !2, !3}
!llvm.ident = !{!4}

!0 = !{i32 1, !"wchar_size", i32 4}
!1 = !{i32 7, !"PIC Level", i32 2}
!2 = !{i32 7, !"PIE Level", i32 2}
!3 = !{i32 7, !"uwtable", i32 1}
!4 = !{!"clang version 13.0.0"}
!5 = !{!6, !6, i64 0}
!6 = !{!"int", !7, i64 0}
!7 = !{!"omnipotent char", !8, i64 0}
!8 = !{!"Simple C++ TBAA"}
!9 = distinct !{!9, !10}
!10 = !{!"llvm.loop.mustprogress"}
!11 = !{!12, !12, i64 0}
!12 = !{!"vtable pointer", !8, i64 0}
!13 = !{!14, !15, i64 240}
!14 = !{!"_ZTSSt9basic_iosIcSt11char_traitsIcEE", !15, i64 216, !7, i64 224, !16, i64 225, !15, i64 232, !15, i64 240, !15, i64 248, !15, i64 256}
!15 = !{!"any pointer", !7, i64 0}
!16 = !{!"bool", !7, i64 0}
!17 = !{!18, !7, i64 56}
!18 = !{!"_ZTSSt5ctypeIcE", !15, i64 16, !16, i64 24, !15, i64 32, !15, i64 40, !15, i64 48, !7, i64 56, !7, i64 57, !7, i64 313, !7, i64 569}
!19 = !{!7, !7, i64 0}
!20 = distinct !{!20, !10}
